; Function Attrs: mustprogress nofree norecurse nosync nounwind willreturn memory(none) uwtable
define i64 @ZSTD_estimateCDictSize(i64 noundef %0, i32 noundef %1) local_unnamed_addr #0 {
  %3 = alloca %struct.ZSTD_compressionParameters, align 8
  call void @llvm.lifetime.start.p0(i64 28, ptr nonnull %3) #28
  call fastcc void @ZSTD_getCParams_internal(ptr dead_on_unwind noalias nonnull writable align 4 %3, i32 noundef %1, i64 noundef -1, i64 noundef %0, i32 noundef 2)
  %4 = getelementptr inbounds nuw i8, ptr %3, i64 24
  %5 = load i32, ptr %4, align 8, !tbaa !73
  %6 = add i32 %5, -6
  %7 = icmp ult i32 %6, -3
  %8 = load i32, ptr %3, align 8
  %9 = icmp ult i32 %8, 15
  %10 = getelementptr inbounds nuw i8, ptr %3, i64 4
  %11 = load i32, ptr %10, align 4, !tbaa !69
  %12 = zext nneg i32 %11 to i64
  %13 = shl i64 4, %12
  %14 = getelementptr inbounds nuw i8, ptr %3, i64 8
  %15 = load i32, ptr %14, align 8, !tbaa !70
  %16 = zext nneg i32 %15 to i64
  %17 = shl nuw i64 1, %16
  %18 = select i1 %7, i1 true, i1 %9
  %19 = add nuw i64 %17, 63
  %20 = and i64 %19, -64
  %21 = select i1 %18, i64 0, i64 %20
  %22 = shl i64 4, %16
  %23 = add i64 %0, 7
  %24 = and i64 %23, -8
  %25 = add i64 %24, 14912
  %26 = add i64 %25, %13
  %27 = add i64 %26, %22
  %28 = add i64 %27, %21
  call void @llvm.lifetime.end.p0(i64 28, ptr nonnull %3) #28
  ret i64 %28
}